; Function Attrs: nounwind uwtable
define dso_local void @zend_stream_init_fp(ptr noundef writeonly captures(none) initializes((0, 80)) %0, ptr noundef %1, ptr noundef readonly captures(address_is_null) %2) local_unnamed_addr #0 {
  %4 = getelementptr inbounds nuw i8, ptr %0, i64 8
  tail call void @llvm.memset.p0.i64(ptr noundef nonnull align 8 dereferenceable(80) %4, i8 0, i64 72, i1 false)
  %5 = getelementptr inbounds nuw i8, ptr %0, i64 56
  store i8 1, ptr %5, align 8, !tbaa !4
  store ptr %1, ptr %0, align 8, !tbaa !13
  %.not = icmp eq ptr %2, null
  br i1 %.not, label %15, label %zend_string_alloc.exit

zend_string_alloc.exit:                           ; preds = %3
  %6 = tail call i64 @strlen(ptr noundef nonnull dereferenceable(1) %2) #14
  %7 = and i64 %6, -8
  %8 = add i64 %7, 32
  %9 = tail call noalias ptr @_emalloc(i64 noundef %8) #15
  store i32 1, ptr %9, align 4, !tbaa !14
  %10 = getelementptr inbounds nuw i8, ptr %9, i64 4
  store i32 22, ptr %10, align 4, !tbaa !13
  %11 = getelementptr inbounds nuw i8, ptr %9, i64 8
  store i64 0, ptr %11, align 8, !tbaa !17
  %12 = getelementptr inbounds nuw i8, ptr %9, i64 16
  store i64 %6, ptr %12, align 8, !tbaa !19
  %13 = getelementptr inbounds nuw i8, ptr %9, i64 24
  tail call void @llvm.memcpy.p0.p0.i64(ptr nonnull align 8 %13, ptr nonnull align 1 %2, i64 %6, i1 false)
  %14 = getelementptr inbounds nuw [1 x i8], ptr %13, i64 0, i64 %6
  store i8 0, ptr %14, align 1, !tbaa !13
  br label %15

15:                                               ; preds = %3, %zend_string_alloc.exit
  %16 = phi ptr [ %9, %zend_string_alloc.exit ], [ null, %3 ]
  %17 = getelementptr inbounds nuw i8, ptr %0, i64 40
  store ptr %16, ptr %17, align 8, !tbaa !20
  ret void
}